(lp0
(S'cppflags'
p1
ccopy_reg
_reconstructor
p2
(cino.utils
SpaceList
p3
c__builtin__
list
p4
(lp5
S'-mmcu=atmega2560'
p6
aS'-DF_CPU=16000000L'
p7
aS'-DARDUINO=105'
p8
aS'-I/usr/share/arduino/hardware/arduino/cores/arduino'
p9
aS'-ffunction-sections'
p10
aS'-fdata-sections'
p11
aS'-g'
p12
aS'-Os'
p13
aS'-w'
p14
aS'-I/usr/share/arduino/hardware/arduino/variants/mega'
p15
aS'-I/usr/share/arduino/libraries/EEPROM'
p16
aS'-Ilib/TimerOne'
p17
aS'-Ilib/TimerOne/config'
p18
aS'-Ilib/Omni3MD'
p19
aS'-Ilib/stdCpp'
p20
aS'-I/usr/share/arduino/libraries/Servo'
p21
aS'-Ilib/ros_lib'
p22
aS'-Ilib/ros_lib/roscpp_tutorials'
p23
aS'-Ilib/ros_lib/diagnostic_msgs'
p24
aS'-Ilib/ros_lib/std_srvs'
p25
aS'-Ilib/ros_lib/rosgraph_msgs'
p26
aS'-Ilib/ros_lib/actionlib_msgs'
p27
aS'-Ilib/ros_lib/rosserial_arduino'
p28
aS'-Ilib/ros_lib/actionlib'
p29
aS'-Ilib/ros_lib/sensor_msgs'
p30
aS'-Ilib/ros_lib/ros'
p31
aS'-Ilib/ros_lib/geometry_msgs'
p32
aS'-Ilib/ros_lib/nodelet'
p33
aS'-Ilib/ros_lib/turtlesim'
p34
aS'-Ilib/ros_lib/roscpp'
p35
aS'-Ilib/ros_lib/nav_msgs'
p36
aS'-Ilib/ros_lib/tf2_msgs'
p37
aS'-Ilib/ros_lib/std_msgs'
p38
aS'-Ilib/ros_lib/bond'
p39
aS'-Ilib/ros_lib/trajectory_msgs'
p40
aS'-Ilib/ros_lib/dynamic_reconfigure'
p41
aS'-Ilib/ros_lib/visualization_msgs'
p42
aS'-Ilib/ros_lib/tf'
p43
aS'-Ilib/ros_lib/polled_camera'
p44
aS'-Ilib/ros_lib/gazebo_msgs'
p45
aS'-Ilib/ros_lib/shape_msgs'
p46
aS'-Ilib/ros_lib/tests'
p47
aS'-Ilib/ros_lib/actionlib_tutorials'
p48
aS'-Ilib/ros_lib/topic_tools'
p49
aS'-Ilib/ros_lib/turtle_actionlib'
p50
aS'-Ilib/ros_lib/stereo_msgs'
p51
aS'-Ilib/ros_lib/rospy_tutorials'
p52
aS'-Ilib/ros_lib/smach_msgs'
p53
aS'-Ilib/ros_lib/control_msgs'
p54
aS'-Ilib/ros_lib/map_msgs'
p55
aS'-Ilib/ros_lib/rosserial_mbed'
p56
aS'-Ilib/ros_lib/rosserial_msgs'
p57
aS'-Ilib/ros_lib/minho_team_ros'
p58
aS'-Ilib/ros_lib/tests/float64_test'
p59
aS'-Ilib/ros_lib/tests/time_test'
p60
aS'-Ilib/ros_lib/tests/array_test'
p61
aS'-I/usr/share/arduino/libraries/Wire'
p62
aS'-I/usr/share/arduino/libraries/Wire/utility'
p63
aS'-I/usr/share/arduino/hardware/arduino/cores/arduino'
p64
aS'-I/usr/share/arduino/hardware/arduino/cores/arduino/avr-libc'
p65
atp66
Rp67
tp68
a(S'cxx'
p69
S'/usr/share/arduino/hardware/tools/avr/bin/avr-g++'
p70
tp71
a(S'arduino_libraries_dir'
p72
S'/usr/share/arduino/libraries'
p73
tp74
a(S'avrdude'
p75
S'/usr/share/arduino/hardware/tools/avrdude'
p76
tp77
a(S'ar'
p78
S'/usr/share/arduino/hardware/tools/avr/bin/avr-ar'
p79
tp80
a(S'names'
p81
(dp82
S'cpp'
p83
S'%s.cpp'
p84
sS'obj'
p85
S'%s.o'
p86
sS'lib'
p87
S'lib%s.a'
p88
sS'deps'
p89
S'%s.d'
p90
stp91
a(S'ldflags'
p92
g2
(g3
g4
(lp93
g6
aS'-Wl,-Os'
p94
aS'-Wl,--gc-sections'
p95
atp96
Rp97
tp98
a(S'arduino_lib_version'
p99
g2
(cino.environment
Version
p100
c__builtin__
tuple
p101
(I1
I0
I5
tp102
tp103
Rp104
tp105
a(S'objcopy'
p106
S'/usr/share/arduino/hardware/tools/avr/bin/avr-objcopy'
p107
tp108
a(S'board_models'
p109
cino.environment
BoardModels
p110
((lp111
(lp112
S'uno'
p113
a(dp114
S'bootloader'
p115
(dp116
S'extended_fuses'
p117
S'0x05'
p118
sS'high_fuses'
p119
S'0xde'
p120
sS'low_fuses'
p121
S'0xff'
p122
sS'lock_bits'
p123
S'0x0F'
p124
sS'file'
p125
S'optiboot_atmega328.hex'
p126
sS'path'
p127
S'optiboot'
p128
sS'unlock_bits'
p129
S'0x3F'
p130
ssS'upload'
p131
(dp132
S'protocol'
p133
S'arduino'
p134
sS'maximum_size'
p135
S'32256'
p136
sS'speed'
p137
S'115200'
p138
ssS'build'
p139
(dp140
S'core'
p141
S'arduino'
p142
sS'mcu'
p143
S'atmega328p'
p144
sS'f_cpu'
p145
S'16000000L'
p146
sS'variant'
p147
S'standard'
p148
ssS'name'
p149
S'Arduino Uno'
p150
saa(lp151
S'atmega328'
p152
a(dp153
S'bootloader'
p154
(dp155
S'extended_fuses'
p156
S'0x05'
p157
sS'high_fuses'
p158
S'0xDA'
p159
sS'low_fuses'
p160
S'0xFF'
p161
sS'lock_bits'
p162
S'0x0F'
p163
sS'file'
p164
S'ATmegaBOOT_168_atmega328.hex'
p165
sS'path'
p166
S'atmega'
p167
sS'unlock_bits'
p168
S'0x3F'
p169
ssS'upload'
p170
(dp171
S'protocol'
p172
S'arduino'
p173
sS'maximum_size'
p174
S'30720'
p175
sS'speed'
p176
S'57600'
p177
ssS'build'
p178
(dp179
S'core'
p180
S'arduino'
p181
sS'mcu'
p182
S'atmega328p'
p183
sS'f_cpu'
p184
S'16000000L'
p185
sS'variant'
p186
S'standard'
p187
ssS'name'
p188
S'Arduino Duemilanove w/ ATmega328'
p189
saa(lp190
S'diecimila'
p191
a(dp192
S'bootloader'
p193
(dp194
S'extended_fuses'
p195
S'0x00'
p196
sS'high_fuses'
p197
S'0xdd'
p198
sS'low_fuses'
p199
S'0xff'
p200
sS'lock_bits'
p201
S'0x0F'
p202
sS'file'
p203
S'ATmegaBOOT_168_diecimila.hex'
p204
sS'path'
p205
S'atmega'
p206
sS'unlock_bits'
p207
S'0x3F'
p208
ssS'upload'
p209
(dp210
S'protocol'
p211
S'arduino'
p212
sS'maximum_size'
p213
S'14336'
p214
sS'speed'
p215
S'19200'
p216
ssS'build'
p217
(dp218
S'core'
p219
S'arduino'
p220
sS'mcu'
p221
S'atmega168'
p222
sS'f_cpu'
p223
S'16000000L'
p224
sS'variant'
p225
S'standard'
p226
ssS'name'
p227
S'Arduino Diecimila or Duemilanove w/ ATmega168'
p228
saa(lp229
S'nano328'
p230
a(dp231
S'bootloader'
p232
(dp233
S'extended_fuses'
p234
S'0x05'
p235
sS'high_fuses'
p236
S'0xDA'
p237
sS'low_fuses'
p238
S'0xFF'
p239
sS'lock_bits'
p240
S'0x0F'
p241
sS'file'
p242
S'ATmegaBOOT_168_atmega328.hex'
p243
sS'path'
p244
S'atmega'
p245
sS'unlock_bits'
p246
S'0x3F'
p247
ssS'upload'
p248
(dp249
S'protocol'
p250
S'arduino'
p251
sS'maximum_size'
p252
S'30720'
p253
sS'speed'
p254
S'57600'
p255
ssS'build'
p256
(dp257
S'core'
p258
S'arduino'
p259
sS'mcu'
p260
S'atmega328p'
p261
sS'f_cpu'
p262
S'16000000L'
p263
sS'variant'
p264
S'eightanaloginputs'
p265
ssS'name'
p266
S'Arduino Nano w/ ATmega328'
p267
saa(lp268
S'nano'
p269
a(dp270
S'bootloader'
p271
(dp272
S'extended_fuses'
p273
S'0x00'
p274
sS'high_fuses'
p275
S'0xdd'
p276
sS'low_fuses'
p277
S'0xff'
p278
sS'lock_bits'
p279
S'0x0F'
p280
sS'file'
p281
S'ATmegaBOOT_168_diecimila.hex'
p282
sS'path'
p283
S'atmega'
p284
sS'unlock_bits'
p285
S'0x3F'
p286
ssS'upload'
p287
(dp288
S'protocol'
p289
S'arduino'
p290
sS'maximum_size'
p291
S'14336'
p292
sS'speed'
p293
S'19200'
p294
ssS'build'
p295
(dp296
S'core'
p297
S'arduino'
p298
sS'mcu'
p299
S'atmega168'
p300
sS'f_cpu'
p301
S'16000000L'
p302
sS'variant'
p303
S'eightanaloginputs'
p304
ssS'name'
p305
S'Arduino Nano w/ ATmega168'
p306
saa(lp307
S'mega2560'
p308
a(dp309
S'bootloader'
p310
(dp311
S'extended_fuses'
p312
S'0xFD'
p313
sS'high_fuses'
p314
S'0xD8'
p315
sS'low_fuses'
p316
S'0xFF'
p317
sS'lock_bits'
p318
S'0x0F'
p319
sS'file'
p320
S'stk500boot_v2_mega2560.hex'
p321
sS'path'
p322
S'stk500v2'
p323
sS'unlock_bits'
p324
S'0x3F'
p325
ssS'upload'
p326
(dp327
S'protocol'
p328
S'wiring'
p329
sS'maximum_size'
p330
S'258048'
p331
sS'speed'
p332
S'115200'
p333
ssS'build'
p334
(dp335
S'core'
p336
S'arduino'
p337
sS'mcu'
p338
S'atmega2560'
p339
sS'f_cpu'
p340
S'16000000L'
p341
sS'variant'
p342
S'mega'
p343
ssS'name'
p344
S'Arduino Mega 2560 or Mega ADK'
p345
saa(lp346
S'mega'
p347
a(dp348
S'bootloader'
p349
(dp350
S'extended_fuses'
p351
S'0xF5'
p352
sS'high_fuses'
p353
S'0xDA'
p354
sS'low_fuses'
p355
S'0xFF'
p356
sS'lock_bits'
p357
S'0x0F'
p358
sS'file'
p359
S'ATmegaBOOT_168_atmega1280.hex'
p360
sS'path'
p361
S'atmega'
p362
sS'unlock_bits'
p363
S'0x3F'
p364
ssS'upload'
p365
(dp366
S'protocol'
p367
S'arduino'
p368
sS'maximum_size'
p369
S'126976'
p370
sS'speed'
p371
S'57600'
p372
ssS'build'
p373
(dp374
S'core'
p375
S'arduino'
p376
sS'mcu'
p377
S'atmega1280'
p378
sS'f_cpu'
p379
S'16000000L'
p380
sS'variant'
p381
S'mega'
p382
ssS'name'
p383
S'Arduino Mega (ATmega1280)'
p384
saa(lp385
S'leonardo'
p386
a(dp387
S'bootloader'
p388
(dp389
S'extended_fuses'
p390
S'0xcb'
p391
sS'high_fuses'
p392
S'0xd8'
p393
sS'low_fuses'
p394
S'0xff'
p395
sS'lock_bits'
p396
S'0x2F'
p397
sS'file'
p398
S'Caterina-Leonardo.hex'
p399
sS'path'
p400
S'caterina'
p401
sS'unlock_bits'
p402
S'0x3F'
p403
ssS'upload'
p404
(dp405
S'protocol'
p406
S'avr109'
p407
sS'maximum_size'
p408
S'28672'
p409
sS'speed'
p410
S'57600'
p411
sS'disable_flushing'
p412
S'true'
p413
ssS'build'
p414
(dp415
S'core'
p416
S'arduino'
p417
sS'f_cpu'
p418
S'16000000L'
p419
sS'vid'
p420
S'0x2341'
p421
sS'pid'
p422
S'0x8036'
p423
sS'variant'
p424
S'leonardo'
p425
sS'mcu'
p426
S'atmega32u4'
p427
ssS'name'
p428
S'Arduino Leonardo'
p429
saa(lp430
S'esplora'
p431
a(dp432
S'bootloader'
p433
(dp434
S'extended_fuses'
p435
S'0xcb'
p436
sS'high_fuses'
p437
S'0xd8'
p438
sS'low_fuses'
p439
S'0xff'
p440
sS'lock_bits'
p441
S'0x2F'
p442
sS'file'
p443
S'Caterina-Esplora.hex'
p444
sS'path'
p445
S'caterina'
p446
sS'unlock_bits'
p447
S'0x3F'
p448
ssS'upload'
p449
(dp450
S'protocol'
p451
S'avr109'
p452
sS'maximum_size'
p453
S'28672'
p454
sS'speed'
p455
S'57600'
p456
sS'disable_flushing'
p457
S'true'
p458
ssS'build'
p459
(dp460
S'core'
p461
S'arduino'
p462
sS'f_cpu'
p463
S'16000000L'
p464
sS'vid'
p465
S'0x2341'
p466
sS'pid'
p467
S'0x803C'
p468
sS'variant'
p469
S'leonardo'
p470
sS'mcu'
p471
S'atmega32u4'
p472
ssS'name'
p473
S'Arduino Esplora'
p474
saa(lp475
S'micro'
p476
a(dp477
S'bootloader'
p478
(dp479
S'extended_fuses'
p480
S'0xcb'
p481
sS'high_fuses'
p482
S'0xd8'
p483
sS'low_fuses'
p484
S'0xff'
p485
sS'lock_bits'
p486
S'0x2F'
p487
sS'file'
p488
S'Caterina-Micro.hex'
p489
sS'path'
p490
S'caterina'
p491
sS'unlock_bits'
p492
S'0x3F'
p493
ssS'upload'
p494
(dp495
S'protocol'
p496
S'avr109'
p497
sS'maximum_size'
p498
S'28672'
p499
sS'speed'
p500
S'57600'
p501
sS'disable_flushing'
p502
S'true'
p503
ssS'build'
p504
(dp505
S'core'
p506
S'arduino'
p507
sS'f_cpu'
p508
S'16000000L'
p509
sS'vid'
p510
S'0x2341'
p511
sS'pid'
p512
S'0x8037'
p513
sS'variant'
p514
S'micro'
p515
sS'mcu'
p516
S'atmega32u4'
p517
ssS'name'
p518
S'Arduino Micro'
p519
saa(lp520
S'mini328'
p521
a(dp522
S'bootloader'
p523
(dp524
S'extended_fuses'
p525
S'0x05'
p526
sS'high_fuses'
p527
S'0xd8'
p528
sS'low_fuses'
p529
S'0xff'
p530
sS'lock_bits'
p531
S'0x0F'
p532
sS'file'
p533
S'optiboot_atmega328-Mini.hex'
p534
sS'path'
p535
S'optiboot'
p536
sS'unlock_bits'
p537
S'0x3F'
p538
ssS'upload'
p539
(dp540
S'protocol'
p541
S'arduino'
p542
sS'maximum_size'
p543
S'28672'
p544
sS'speed'
p545
S'115200'
p546
ssS'build'
p547
(dp548
S'core'
p549
S'arduino'
p550
sS'mcu'
p551
S'atmega328p'
p552
sS'f_cpu'
p553
S'16000000L'
p554
sS'variant'
p555
S'eightanaloginputs'
p556
ssS'name'
p557
S'Arduino Mini w/ ATmega328'
p558
saa(lp559
S'mini'
p560
a(dp561
S'bootloader'
p562
(dp563
S'extended_fuses'
p564
S'0x00'
p565
sS'high_fuses'
p566
S'0xdd'
p567
sS'low_fuses'
p568
S'0xff'
p569
sS'lock_bits'
p570
S'0x0F'
p571
sS'file'
p572
S'ATmegaBOOT_168_ng.hex'
p573
sS'path'
p574
S'atmega'
p575
sS'unlock_bits'
p576
S'0x3F'
p577
ssS'upload'
p578
(dp579
S'protocol'
p580
S'arduino'
p581
sS'maximum_size'
p582
S'14336'
p583
sS'speed'
p584
S'19200'
p585
ssS'build'
p586
(dp587
S'core'
p588
S'arduino'
p589
sS'mcu'
p590
S'atmega168'
p591
sS'f_cpu'
p592
S'16000000L'
p593
sS'variant'
p594
S'eightanaloginputs'
p595
ssS'name'
p596
S'Arduino Mini w/ ATmega168'
p597
saa(lp598
S'ethernet'
p599
a(dp600
S'bootloader'
p601
(dp602
S'extended_fuses'
p603
S'0x05'
p604
sS'high_fuses'
p605
S'0xde'
p606
sS'low_fuses'
p607
S'0xff'
p608
sS'lock_bits'
p609
S'0x0F'
p610
sS'file'
p611
S'optiboot_atmega328.hex'
p612
sS'path'
p613
S'optiboot'
p614
sS'unlock_bits'
p615
S'0x3F'
p616
ssS'upload'
p617
(dp618
S'protocol'
p619
S'arduino'
p620
sS'maximum_size'
p621
S'32256'
p622
sS'speed'
p623
S'115200'
p624
ssS'build'
p625
(dp626
S'variant'
p627
S'standard'
p628
sS'mcu'
p629
S'atmega328p'
p630
sS'f_cpu'
p631
S'16000000L'
p632
sS'core'
p633
S'arduino'
p634
ssS'name'
p635
S'Arduino Ethernet'
p636
saa(lp637
S'fio'
p638
a(dp639
S'bootloader'
p640
(dp641
S'extended_fuses'
p642
S'0x05'
p643
sS'high_fuses'
p644
S'0xDA'
p645
sS'low_fuses'
p646
S'0xFF'
p647
sS'lock_bits'
p648
S'0x0F'
p649
sS'file'
p650
S'ATmegaBOOT_168_atmega328_pro_8MHz.hex'
p651
sS'path'
p652
S'arduino:atmega'
p653
sS'unlock_bits'
p654
S'0x3F'
p655
ssS'upload'
p656
(dp657
S'protocol'
p658
S'arduino'
p659
sS'maximum_size'
p660
S'30720'
p661
sS'speed'
p662
S'57600'
p663
ssS'build'
p664
(dp665
S'core'
p666
S'arduino'
p667
sS'mcu'
p668
S'atmega328p'
p669
sS'f_cpu'
p670
S'8000000L'
p671
sS'variant'
p672
S'eightanaloginputs'
p673
ssS'name'
p674
S'Arduino Fio'
p675
saa(lp676
S'bt328'
p677
a(dp678
S'bootloader'
p679
(dp680
S'extended_fuses'
p681
S'0x05'
p682
sS'high_fuses'
p683
S'0xd8'
p684
sS'low_fuses'
p685
S'0xff'
p686
sS'lock_bits'
p687
S'0x0F'
p688
sS'file'
p689
S'ATmegaBOOT_168_atmega328_bt.hex'
p690
sS'path'
p691
S'bt'
p692
sS'unlock_bits'
p693
S'0x3F'
p694
ssS'upload'
p695
(dp696
S'protocol'
p697
S'arduino'
p698
sS'maximum_size'
p699
S'28672'
p700
sS'speed'
p701
S'19200'
p702
sS'disable_flushing'
p703
S'true'
p704
ssS'build'
p705
(dp706
S'core'
p707
S'arduino'
p708
sS'mcu'
p709
S'atmega328p'
p710
sS'f_cpu'
p711
S'16000000L'
p712
sS'variant'
p713
S'eightanaloginputs'
p714
ssS'name'
p715
S'Arduino BT w/ ATmega328'
p716
saa(lp717
S'bt'
p718
a(dp719
S'bootloader'
p720
(dp721
S'extended_fuses'
p722
S'0x00'
p723
sS'high_fuses'
p724
S'0xdd'
p725
sS'low_fuses'
p726
S'0xff'
p727
sS'lock_bits'
p728
S'0x0F'
p729
sS'file'
p730
S'ATmegaBOOT_168.hex'
p731
sS'path'
p732
S'bt'
p733
sS'unlock_bits'
p734
S'0x3F'
p735
ssS'upload'
p736
(dp737
S'protocol'
p738
S'arduino'
p739
sS'maximum_size'
p740
S'14336'
p741
sS'speed'
p742
S'19200'
p743
sS'disable_flushing'
p744
S'true'
p745
ssS'build'
p746
(dp747
S'core'
p748
S'arduino'
p749
sS'mcu'
p750
S'atmega168'
p751
sS'f_cpu'
p752
S'16000000L'
p753
sS'variant'
p754
S'eightanaloginputs'
p755
ssS'name'
p756
S'Arduino BT w/ ATmega168'
p757
saa(lp758
S'LilyPadUSB'
p759
a(dp760
S'bootloader'
p761
(dp762
S'extended_fuses'
p763
S'0xce'
p764
sS'high_fuses'
p765
S'0xd8'
p766
sS'low_fuses'
p767
S'0xff'
p768
sS'lock_bits'
p769
S'0x2F'
p770
sS'file'
p771
S'Caterina-LilyPadUSB.hex'
p772
sS'path'
p773
S'caterina-LilyPadUSB'
p774
sS'unlock_bits'
p775
S'0x3F'
p776
ssS'upload'
p777
(dp778
S'protocol'
p779
S'avr109'
p780
sS'maximum_size'
p781
S'28672'
p782
sS'speed'
p783
S'57600'
p784
sS'disable_flushing'
p785
S'true'
p786
ssS'build'
p787
(dp788
S'core'
p789
S'arduino'
p790
sS'f_cpu'
p791
S'8000000L'
p792
sS'vid'
p793
S'0x1B4F'
p794
sS'pid'
p795
S'0x9208'
p796
sS'variant'
p797
S'leonardo'
p798
sS'mcu'
p799
S'atmega32u4'
p800
ssS'name'
p801
S'LilyPad Arduino USB'
p802
saa(lp803
S'lilypad328'
p804
a(dp805
S'bootloader'
p806
(dp807
S'extended_fuses'
p808
S'0x05'
p809
sS'high_fuses'
p810
S'0xDA'
p811
sS'low_fuses'
p812
S'0xFF'
p813
sS'lock_bits'
p814
S'0x0F'
p815
sS'file'
p816
S'ATmegaBOOT_168_atmega328_pro_8MHz.hex'
p817
sS'path'
p818
S'atmega'
p819
sS'unlock_bits'
p820
S'0x3F'
p821
ssS'upload'
p822
(dp823
S'protocol'
p824
S'arduino'
p825
sS'maximum_size'
p826
S'30720'
p827
sS'speed'
p828
S'57600'
p829
ssS'build'
p830
(dp831
S'core'
p832
S'arduino'
p833
sS'mcu'
p834
S'atmega328p'
p835
sS'f_cpu'
p836
S'8000000L'
p837
sS'variant'
p838
S'standard'
p839
ssS'name'
p840
S'LilyPad Arduino w/ ATmega328'
p841
saa(lp842
S'lilypad'
p843
a(dp844
S'bootloader'
p845
(dp846
S'extended_fuses'
p847
S'0x00'
p848
sS'high_fuses'
p849
S'0xdd'
p850
sS'low_fuses'
p851
S'0xe2'
p852
sS'lock_bits'
p853
S'0x0F'
p854
sS'file'
p855
S'LilyPadBOOT_168.hex'
p856
sS'path'
p857
S'lilypad'
p858
sS'unlock_bits'
p859
S'0x3F'
p860
ssS'upload'
p861
(dp862
S'protocol'
p863
S'arduino'
p864
sS'maximum_size'
p865
S'14336'
p866
sS'speed'
p867
S'19200'
p868
ssS'build'
p869
(dp870
S'core'
p871
S'arduino'
p872
sS'mcu'
p873
S'atmega168'
p874
sS'f_cpu'
p875
S'8000000L'
p876
sS'variant'
p877
S'standard'
p878
ssS'name'
p879
S'LilyPad Arduino w/ ATmega168'
p880
saa(lp881
S'pro5v328'
p882
a(dp883
S'bootloader'
p884
(dp885
S'extended_fuses'
p886
S'0x05'
p887
sS'high_fuses'
p888
S'0xDA'
p889
sS'low_fuses'
p890
S'0xFF'
p891
sS'lock_bits'
p892
S'0x0F'
p893
sS'file'
p894
S'ATmegaBOOT_168_atmega328.hex'
p895
sS'path'
p896
S'atmega'
p897
sS'unlock_bits'
p898
S'0x3F'
p899
ssS'upload'
p900
(dp901
S'protocol'
p902
S'arduino'
p903
sS'maximum_size'
p904
S'30720'
p905
sS'speed'
p906
S'57600'
p907
ssS'build'
p908
(dp909
S'core'
p910
S'arduino'
p911
sS'mcu'
p912
S'atmega328p'
p913
sS'f_cpu'
p914
S'16000000L'
p915
sS'variant'
p916
S'standard'
p917
ssS'name'
p918
S'Arduino Pro or Pro Mini (5V, 16 MHz) w/ ATmega328'
p919
saa(lp920
S'pro5v'
p921
a(dp922
S'bootloader'
p923
(dp924
S'extended_fuses'
p925
S'0x00'
p926
sS'high_fuses'
p927
S'0xdd'
p928
sS'low_fuses'
p929
S'0xff'
p930
sS'lock_bits'
p931
S'0x0F'
p932
sS'file'
p933
S'ATmegaBOOT_168_diecimila.hex'
p934
sS'path'
p935
S'atmega'
p936
sS'unlock_bits'
p937
S'0x3F'
p938
ssS'upload'
p939
(dp940
S'protocol'
p941
S'arduino'
p942
sS'maximum_size'
p943
S'14336'
p944
sS'speed'
p945
S'19200'
p946
ssS'build'
p947
(dp948
S'core'
p949
S'arduino'
p950
sS'mcu'
p951
S'atmega168'
p952
sS'f_cpu'
p953
S'16000000L'
p954
sS'variant'
p955
S'standard'
p956
ssS'name'
p957
S'Arduino Pro or Pro Mini (5V, 16 MHz) w/ ATmega168'
p958
saa(lp959
S'pro328'
p960
a(dp961
S'bootloader'
p962
(dp963
S'extended_fuses'
p964
S'0x05'
p965
sS'high_fuses'
p966
S'0xDA'
p967
sS'low_fuses'
p968
S'0xFF'
p969
sS'lock_bits'
p970
S'0x0F'
p971
sS'file'
p972
S'ATmegaBOOT_168_atmega328_pro_8MHz.hex'
p973
sS'path'
p974
S'atmega'
p975
sS'unlock_bits'
p976
S'0x3F'
p977
ssS'upload'
p978
(dp979
S'protocol'
p980
S'arduino'
p981
sS'maximum_size'
p982
S'30720'
p983
sS'speed'
p984
S'57600'
p985
ssS'build'
p986
(dp987
S'core'
p988
S'arduino'
p989
sS'mcu'
p990
S'atmega328p'
p991
sS'f_cpu'
p992
S'8000000L'
p993
sS'variant'
p994
S'standard'
p995
ssS'name'
p996
S'Arduino Pro or Pro Mini (3.3V, 8 MHz) w/ ATmega328'
p997
saa(lp998
S'pro'
p999
a(dp1000
S'bootloader'
p1001
(dp1002
S'extended_fuses'
p1003
S'0x00'
p1004
sS'high_fuses'
p1005
S'0xdd'
p1006
sS'low_fuses'
p1007
S'0xc6'
p1008
sS'lock_bits'
p1009
S'0x0F'
p1010
sS'file'
p1011
S'ATmegaBOOT_168_pro_8MHz.hex'
p1012
sS'path'
p1013
S'atmega'
p1014
sS'unlock_bits'
p1015
S'0x3F'
p1016
ssS'upload'
p1017
(dp1018
S'protocol'
p1019
S'arduino'
p1020
sS'maximum_size'
p1021
S'14336'
p1022
sS'speed'
p1023
S'19200'
p1024
ssS'build'
p1025
(dp1026
S'core'
p1027
S'arduino'
p1028
sS'mcu'
p1029
S'atmega168'
p1030
sS'f_cpu'
p1031
S'8000000L'
p1032
sS'variant'
p1033
S'standard'
p1034
ssS'name'
p1035
S'Arduino Pro or Pro Mini (3.3V, 8 MHz) w/ ATmega168'
p1036
saa(lp1037
S'atmega168'
p1038
a(dp1039
S'bootloader'
p1040
(dp1041
S'extended_fuses'
p1042
S'0x00'
p1043
sS'high_fuses'
p1044
S'0xdd'
p1045
sS'low_fuses'
p1046
S'0xff'
p1047
sS'lock_bits'
p1048
S'0x0F'
p1049
sS'file'
p1050
S'ATmegaBOOT_168_ng.hex'
p1051
sS'path'
p1052
S'atmega'
p1053
sS'unlock_bits'
p1054
S'0x3F'
p1055
ssS'upload'
p1056
(dp1057
S'protocol'
p1058
S'arduino'
p1059
sS'maximum_size'
p1060
S'14336'
p1061
sS'speed'
p1062
S'19200'
p1063
ssS'build'
p1064
(dp1065
S'core'
p1066
S'arduino'
p1067
sS'mcu'
p1068
S'atmega168'
p1069
sS'f_cpu'
p1070
S'16000000L'
p1071
sS'variant'
p1072
S'standard'
p1073
ssS'name'
p1074
S'Arduino NG or older w/ ATmega168'
p1075
saa(lp1076
S'atmega8'
p1077
a(dp1078
S'bootloader'
p1079
(dp1080
S'high_fuses'
p1081
S'0xca'
p1082
sS'low_fuses'
p1083
S'0xdf'
p1084
sS'lock_bits'
p1085
S'0x0F'
p1086
sS'file'
p1087
S'ATmegaBOOT-prod-firmware-2009-11-07.hex'
p1088
sS'path'
p1089
S'atmega8'
p1090
sS'unlock_bits'
p1091
S'0x3F'
p1092
ssS'upload'
p1093
(dp1094
S'protocol'
p1095
S'arduino'
p1096
sS'maximum_size'
p1097
S'7168'
p1098
sS'speed'
p1099
S'19200'
p1100
ssS'build'
p1101
(dp1102
S'core'
p1103
S'arduino'
p1104
sS'mcu'
p1105
S'atmega8'
p1106
sS'f_cpu'
p1107
S'16000000L'
p1108
sS'variant'
p1109
S'standard'
p1110
ssS'name'
p1111
S'Arduino NG or older w/ ATmega8'
p1112
saa(lp1113
S'robotControl'
p1114
a(dp1115
S'bootloader'
p1116
(dp1117
S'extended_fuses'
p1118
S'0xcb'
p1119
sS'high_fuses'
p1120
S'0xd8'
p1121
sS'low_fuses'
p1122
S'0xff'
p1123
sS'lock_bits'
p1124
S'0x2F'
p1125
sS'file'
p1126
S'Caterina-Robot-Control.hex'
p1127
sS'path'
p1128
S'caterina-Arduino_Robot'
p1129
sS'unlock_bits'
p1130
S'0x3F'
p1131
ssS'upload'
p1132
(dp1133
S'protocol'
p1134
S'avr109'
p1135
sS'maximum_size'
p1136
S'28672'
p1137
sS'speed'
p1138
S'57600'
p1139
sS'disable_flushing'
p1140
S'true'
p1141
ssS'build'
p1142
(dp1143
S'core'
p1144
S'robot'
p1145
sS'f_cpu'
p1146
S'16000000L'
p1147
sS'vid'
p1148
S'0x2341'
p1149
sS'pid'
p1150
S'0x8038'
p1151
sS'variant'
p1152
S'robot_control'
p1153
sS'mcu'
p1154
S'atmega32u4'
p1155
ssS'name'
p1156
S'Arduino Robot Control'
p1157
saa(lp1158
S'robotMotor'
p1159
a(dp1160
S'bootloader'
p1161
(dp1162
S'extended_fuses'
p1163
S'0xcb'
p1164
sS'high_fuses'
p1165
S'0xd8'
p1166
sS'low_fuses'
p1167
S'0xff'
p1168
sS'lock_bits'
p1169
S'0x2F'
p1170
sS'file'
p1171
S'Caterina-Robot-Motor.hex'
p1172
sS'path'
p1173
S'caterina-Arduino_Robot'
p1174
sS'unlock_bits'
p1175
S'0x3F'
p1176
ssS'upload'
p1177
(dp1178
S'protocol'
p1179
S'avr109'
p1180
sS'maximum_size'
p1181
S'28672'
p1182
sS'speed'
p1183
S'57600'
p1184
sS'disable_flushing'
p1185
S'true'
p1186
ssS'build'
p1187
(dp1188
S'core'
p1189
S'robot'
p1190
sS'f_cpu'
p1191
S'16000000L'
p1192
sS'vid'
p1193
S'0x2341'
p1194
sS'pid'
p1195
S'0x8039'
p1196
sS'variant'
p1197
S'robot_motor'
p1198
sS'mcu'
p1199
S'atmega32u4'
p1200
ssS'name'
p1201
S'Arduino Robot Motor'
p1202
saatp1203
Rp1204
(dp1205
S'default'
p1206
S'uno'
p1207
sbtp1208
a(S'used_libs'
p1209
(lp1210
S'/usr/share/arduino/libraries/EEPROM'
p1211
aS'lib/TimerOne'
p1212
aS'lib/Omni3MD'
p1213
aS'lib/stdCpp'
p1214
aS'/usr/share/arduino/libraries/Servo'
p1215
aS'lib/ros_lib'
p1216
aS'/usr/share/arduino/libraries/Wire'
p1217
aS'/usr/share/arduino/hardware/arduino/cores/arduino'
p1218
atp1219
a(S'make'
p1220
S'/usr/share/arduino/hardware/tools/avr/bin/make'
p1221
tp1222
a(S'build_dir'
p1223
S'.build/mega2560'
p1224
tp1225
a(S'cc'
p1226
S'/usr/share/arduino/hardware/tools/avr/bin/avr-gcc'
p1227
tp1228
a(S'cflags'
p1229
g2
(g3
g4
(lp1230
tp1231
Rp1232
tp1233
a(S'cxxflags'
p1234
g2
(g3
g4
(lp1235
S'-fno-exceptions'
p1236
atp1237
Rp1238
tp1239
a(S'arduino_variants_dir'
p1240
S'/usr/share/arduino/hardware/arduino/variants'
p1241
tp1242
a(S'stty'
p1243
S'/bin/stty'
p1244
tp1245
a(S'version.txt'
p1246
S'/usr/share/arduino/lib/version.txt'
p1247
tp1248
a(S'arduino_core_dir'
p1249
g1218
tp1250
a(S'boards.txt'
p1251
S'/usr/share/arduino/hardware/arduino/boards.txt'
p1252
tp1253
a(S'avrdude.conf'
p1254
S'/usr/share/arduino/hardware/tools/avrdude.conf'
p1255
tp1256
a(g89
g2
(g3
g4
(lp1257
S'.build/mega2560/src/dependencies.d'
p1258
aS'.build/mega2560/arduino/dependencies.d'
p1259
aS'.build/mega2560/EEPROM/dependencies.d'
p1260
aS'.build/mega2560/TimerOne/dependencies.d'
p1261
aS'.build/mega2560/Omni3MD/dependencies.d'
p1262
aS'.build/mega2560/Wire/dependencies.d'
p1263
aS'.build/mega2560/stdCpp/dependencies.d'
p1264
aS'.build/mega2560/Servo/dependencies.d'
p1265
aS'.build/mega2560/ros_lib/dependencies.d'
p1266
atp1267
Rp1268
tp1269
a.